; Function Attrs: nounwind uwtable
define ptr @dtgtk_button_new(ptr noundef %0, i32 noundef %1, ptr noundef %2) local_unnamed_addr #0 {
  %4 = load atomic i64, ptr @dtgtk_button_get_type.static_g_define_type_id seq_cst, align 8
  %.not.i = icmp eq i64 %4, 0
  br i1 %.not.i, label %5, label %dtgtk_button_get_type.exit

5:                                                ; preds = %3
  %6 = tail call i32 @g_once_init_enter(ptr noundef nonnull @dtgtk_button_get_type.static_g_define_type_id) #9
  %.not4.i = icmp eq i32 %6, 0
  br i1 %.not4.i, label %dtgtk_button_get_type.exit, label %7

7:                                                ; preds = %5
  %8 = tail call fastcc i64 @dtgtk_button_get_type_once()
  tail call void @g_once_init_leave(ptr noundef nonnull @dtgtk_button_get_type.static_g_define_type_id, i64 noundef %8) #9
  br label %dtgtk_button_get_type.exit

dtgtk_button_get_type.exit:                       ; preds = %3, %5, %7
  %9 = load i64, ptr @dtgtk_button_get_type.static_g_define_type_id, align 8, !tbaa !6
  %10 = tail call ptr (i64, ptr, ...) @g_object_new(i64 noundef %9, ptr noundef null) #9
  %11 = getelementptr inbounds nuw i8, ptr %10, i64 56
  store ptr %0, ptr %11, align 8, !tbaa !10
  %12 = getelementptr inbounds nuw i8, ptr %10, i64 64
  store i32 %1, ptr %12, align 8, !tbaa !29
  %13 = getelementptr inbounds nuw i8, ptr %10, i64 72
  store ptr %2, ptr %13, align 8, !tbaa !30
  %14 = tail call ptr @gtk_drawing_area_new() #9
  %15 = getelementptr inbounds nuw i8, ptr %10, i64 144
  store ptr %14, ptr %15, align 8, !tbaa !31
  %16 = tail call i64 @gtk_container_get_type() #10
  %17 = tail call ptr @g_type_check_instance_cast(ptr noundef %10, i64 noundef %16) #9
  %18 = load ptr, ptr %15, align 8, !tbaa !31
  tail call void @gtk_container_add(ptr noundef %17, ptr noundef %18) #9
  %19 = tail call i64 @gtk_widget_get_type() #10
  %20 = tail call ptr @g_type_check_instance_cast(ptr noundef %10, i64 noundef %19) #9
  tail call void @dt_gui_add_class(ptr noundef %20, ptr noundef nonnull @.str) #9
  %21 = load ptr, ptr %15, align 8, !tbaa !31
  %22 = tail call ptr @g_type_check_instance_cast(ptr noundef %21, i64 noundef %19) #9
  tail call void @gtk_widget_set_name(ptr noundef %22, ptr noundef nonnull @.str.1) #9
  ret ptr %10
}